; Function Attrs: mustprogress uwtable
define void @_ZN6icu_7714TimeUnitFormat6createE20UTimeUnitFormatStyleR10UErrorCode(ptr noundef nonnull align 8 dereferenceable(124) initializes((64, 120)) %0, i32 noundef %1, ptr noundef nonnull align 4 dereferenceable(4) %2) local_unnamed_addr #1 align 2 {
  %4 = getelementptr inbounds nuw i8, ptr %0, i64 64
  tail call void @llvm.memset.p0.i64(ptr noundef nonnull align 8 dereferenceable(56) %4, i8 0, i64 56, i1 false), !tbaa !17
  %5 = load i32, ptr %2, align 4, !tbaa !13
  %6 = icmp slt i32 %5, 1
  br i1 %6, label %7, label %11

7:                                                ; preds = %3
  %or.cond = icmp ugt i32 %1, 1
  br i1 %or.cond, label %8, label %9

8:                                                ; preds = %7
  store i32 1, ptr %2, align 4, !tbaa !13
  br label %11

9:                                                ; preds = %7
  %10 = getelementptr inbounds nuw i8, ptr %0, i64 120
  store i32 %1, ptr %10, align 8, !tbaa !19
  tail call void @_ZN6icu_7714TimeUnitFormat5setupER10UErrorCode(ptr noundef nonnull align 8 dereferenceable(124) %0, ptr noundef nonnull align 4 dereferenceable(4) %2)
  br label %11

11:                                               ; preds = %3, %9, %8
  ret void
}